; Function Attrs: nofree nounwind uwtable
define internal void @copy_pixel_rows(ptr readnone captures(none) %0, ptr noundef readonly captures(none) %1, i32 %2) #3 {
  %4 = getelementptr inbounds nuw i8, ptr %1, i64 40
  %5 = load ptr, ptr %4, align 8, !tbaa !54
  %6 = load ptr, ptr %5, align 8, !tbaa !63
  %7 = getelementptr inbounds nuw i8, ptr %1, i64 72
  %8 = load ptr, ptr %7, align 8, !tbaa !48
  %9 = getelementptr inbounds nuw i8, ptr %1, i64 96
  %10 = load i32, ptr %9, align 8, !tbaa !62
  %11 = zext i32 %10 to i64
  tail call void @llvm.memcpy.p0.p0.i64(ptr align 1 %8, ptr align 1 %6, i64 %11, i1 false)
  %12 = load ptr, ptr %7, align 8, !tbaa !48
  %13 = getelementptr inbounds nuw i8, ptr %1, i64 88
  %14 = load i64, ptr %13, align 8, !tbaa !47
  %15 = getelementptr inbounds nuw i8, ptr %1, i64 32
  %16 = load ptr, ptr %15, align 8, !tbaa !58
  %17 = tail call i64 @fwrite(ptr noundef %12, i64 noundef 1, i64 noundef %14, ptr noundef %16)
  ret void
}